target datalayout = "e-m:e-p270:32:32-p271:32:32-p272:64:64-i64:64-i128:128-f80:128-n8:16:32:64-S128"
target triple = "x86_64-pc-linux-gnu"

%struct.mbedtls_md_context_t = type { ptr, ptr, ptr }
%struct.mbedtls_md_info_t = type { i32, i8, i8 }

; Function Attrs: nounwind uwtable
define hidden void @mbedtls_md_free(ptr noundef %0) #0 {
  %2 = alloca ptr, align 8
  store ptr %0, ptr %2, align 8, !tbaa !7
  %3 = load ptr, ptr %2, align 8, !tbaa !7
  %4 = icmp eq ptr %3, null
  br i1 %4, label %10, label %5

5:                                                ; preds = %1
  %6 = load ptr, ptr %2, align 8, !tbaa !7
  %7 = getelementptr inbounds nuw %struct.mbedtls_md_context_t, ptr %6, i32 0, i32 0
  %8 = load ptr, ptr %7, align 8, !tbaa !10
  %9 = icmp eq ptr %8, null
  br i1 %9, label %10, label %11

10:                                               ; preds = %5, %1
  br label %78

11:                                               ; preds = %5
  %12 = load ptr, ptr %2, align 8, !tbaa !7
  %13 = getelementptr inbounds nuw %struct.mbedtls_md_context_t, ptr %12, i32 0, i32 1
  %14 = load ptr, ptr %13, align 8, !tbaa !13
  %15 = icmp ne ptr %14, null
  br i1 %15, label %16, label %59

16:                                               ; preds = %11
  %17 = load ptr, ptr %2, align 8, !tbaa !7
  %18 = getelementptr inbounds nuw %struct.mbedtls_md_context_t, ptr %17, i32 0, i32 0
  %19 = load ptr, ptr %18, align 8, !tbaa !10
  %20 = getelementptr inbounds nuw %struct.mbedtls_md_info_t, ptr %19, i32 0, i32 0
  %21 = load i32, ptr %20, align 4, !tbaa !14
  switch i32 %21, label %54 [
    i32 3, label %22
    i32 4, label %26
    i32 5, label %30
    i32 8, label %34
    i32 9, label %38
    i32 10, label %42
    i32 11, label %46
    i32 16, label %50
    i32 17, label %50
    i32 18, label %50
    i32 19, label %50
  ]

22:                                               ; preds = %16
  %23 = load ptr, ptr %2, align 8, !tbaa !7
  %24 = getelementptr inbounds nuw %struct.mbedtls_md_context_t, ptr %23, i32 0, i32 1
  %25 = load ptr, ptr %24, align 8, !tbaa !13
  call void @mbedtls_md5_free(ptr noundef %25)
  br label %55

26:                                               ; preds = %16
  %27 = load ptr, ptr %2, align 8, !tbaa !7
  %28 = getelementptr inbounds nuw %struct.mbedtls_md_context_t, ptr %27, i32 0, i32 1
  %29 = load ptr, ptr %28, align 8, !tbaa !13
  call void @mbedtls_ripemd160_free(ptr noundef %29)
  br label %55

30:                                               ; preds = %16
  %31 = load ptr, ptr %2, align 8, !tbaa !7
  %32 = getelementptr inbounds nuw %struct.mbedtls_md_context_t, ptr %31, i32 0, i32 1
  %33 = load ptr, ptr %32, align 8, !tbaa !13
  call void @mbedtls_sha1_free(ptr noundef %33)
  br label %55

34:                                               ; preds = %16
  %35 = load ptr, ptr %2, align 8, !tbaa !7
  %36 = getelementptr inbounds nuw %struct.mbedtls_md_context_t, ptr %35, i32 0, i32 1
  %37 = load ptr, ptr %36, align 8, !tbaa !13
  call void @mbedtls_sha256_free(ptr noundef %37)
  br label %55

38:                                               ; preds = %16
  %39 = load ptr, ptr %2, align 8, !tbaa !7
  %40 = getelementptr inbounds nuw %struct.mbedtls_md_context_t, ptr %39, i32 0, i32 1
  %41 = load ptr, ptr %40, align 8, !tbaa !13
  call void @mbedtls_sha256_free(ptr noundef %41)
  br label %55

42:                                               ; preds = %16
  %43 = load ptr, ptr %2, align 8, !tbaa !7
  %44 = getelementptr inbounds nuw %struct.mbedtls_md_context_t, ptr %43, i32 0, i32 1
  %45 = load ptr, ptr %44, align 8, !tbaa !13
  call void @mbedtls_sha512_free(ptr noundef %45)
  br label %55

46:                                               ; preds = %16
  %47 = load ptr, ptr %2, align 8, !tbaa !7
  %48 = getelementptr inbounds nuw %struct.mbedtls_md_context_t, ptr %47, i32 0, i32 1
  %49 = load ptr, ptr %48, align 8, !tbaa !13
  call void @mbedtls_sha512_free(ptr noundef %49)
  br label %55

50:                                               ; preds = %16, %16, %16, %16
  %51 = load ptr, ptr %2, align 8, !tbaa !7
  %52 = getelementptr inbounds nuw %struct.mbedtls_md_context_t, ptr %51, i32 0, i32 1
  %53 = load ptr, ptr %52, align 8, !tbaa !13
  call void @mbedtls_sha3_free(ptr noundef %53)
  br label %55

54:                                               ; preds = %16
  br label %55

55:                                               ; preds = %54, %50, %46, %42, %38, %34, %30, %26, %22
  %56 = load ptr, ptr %2, align 8, !tbaa !7
  %57 = getelementptr inbounds nuw %struct.mbedtls_md_context_t, ptr %56, i32 0, i32 1
  %58 = load ptr, ptr %57, align 8, !tbaa !13
  call void @free(ptr noundef %58) #9
  br label %59

59:                                               ; preds = %55, %11
  %60 = load ptr, ptr %2, align 8, !tbaa !7
  %61 = getelementptr inbounds nuw %struct.mbedtls_md_context_t, ptr %60, i32 0, i32 2
  %62 = load ptr, ptr %61, align 8, !tbaa !16
  %63 = icmp ne ptr %62, null
  br i1 %63, label %64, label %76

64:                                               ; preds = %59
  %65 = load ptr, ptr %2, align 8, !tbaa !7
  %66 = getelementptr inbounds nuw %struct.mbedtls_md_context_t, ptr %65, i32 0, i32 2
  %67 = load ptr, ptr %66, align 8, !tbaa !16
  %68 = load ptr, ptr %2, align 8, !tbaa !7
  %69 = getelementptr inbounds nuw %struct.mbedtls_md_context_t, ptr %68, i32 0, i32 0
  %70 = load ptr, ptr %69, align 8, !tbaa !10
  %71 = getelementptr inbounds nuw %struct.mbedtls_md_info_t, ptr %70, i32 0, i32 2
  %72 = load i8, ptr %71, align 1, !tbaa !17
  %73 = zext i8 %72 to i32
  %74 = mul nsw i32 2, %73
  %75 = sext i32 %74 to i64
  call void @mbedtls_zeroize_and_free(ptr noundef %67, i64 noundef %75)
  br label %76

76:                                               ; preds = %64, %59
  %77 = load ptr, ptr %2, align 8, !tbaa !7
  call void @mbedtls_platform_zeroize(ptr noundef %77, i64 noundef 24)
  br label %78

78:                                               ; preds = %76, %10
  ret void
}