; Function Attrs: nounwind uwtable
define hidden void @mbedtls_md_free(ptr noundef %0) local_unnamed_addr #3 {
  %2 = icmp eq ptr %0, null
  br i1 %2, label %31, label %3

3:                                                ; preds = %1
  %4 = load ptr, ptr %0, align 8, !tbaa !3
  %5 = icmp eq ptr %4, null
  br i1 %5, label %31, label %6

6:                                                ; preds = %3
  %7 = getelementptr inbounds nuw i8, ptr %0, i64 8
  %8 = load ptr, ptr %7, align 8, !tbaa !9
  %.not = icmp eq ptr %8, null
  br i1 %.not, label %21, label %9

9:                                                ; preds = %6
  %10 = load i32, ptr %4, align 4, !tbaa !10
  switch i32 %10, label %19 [
    i32 3, label %11
    i32 4, label %12
    i32 5, label %13
    i32 8, label %14
    i32 9, label %15
    i32 10, label %16
    i32 11, label %17
    i32 16, label %18
    i32 17, label %18
    i32 18, label %18
    i32 19, label %18
  ]

11:                                               ; preds = %9
  tail call void @mbedtls_md5_free(ptr noundef nonnull %8) #14
  br label %19

12:                                               ; preds = %9
  tail call void @mbedtls_ripemd160_free(ptr noundef nonnull %8) #14
  br label %19

13:                                               ; preds = %9
  tail call void @mbedtls_sha1_free(ptr noundef nonnull %8) #14
  br label %19

14:                                               ; preds = %9
  tail call void @mbedtls_sha256_free(ptr noundef nonnull %8) #14
  br label %19

15:                                               ; preds = %9
  tail call void @mbedtls_sha256_free(ptr noundef nonnull %8) #14
  br label %19

16:                                               ; preds = %9
  tail call void @mbedtls_sha512_free(ptr noundef nonnull %8) #14
  br label %19

17:                                               ; preds = %9
  tail call void @mbedtls_sha512_free(ptr noundef nonnull %8) #14
  br label %19

18:                                               ; preds = %9, %9, %9, %9
  tail call void @mbedtls_sha3_free(ptr noundef nonnull %8) #14
  br label %19

19:                                               ; preds = %9, %18, %17, %16, %15, %14, %13, %12, %11
  %20 = load ptr, ptr %7, align 8, !tbaa !9
  tail call void @free(ptr noundef %20) #14
  br label %21

21:                                               ; preds = %19, %6
  %22 = getelementptr inbounds nuw i8, ptr %0, i64 16
  %23 = load ptr, ptr %22, align 8, !tbaa !13
  %.not20 = icmp eq ptr %23, null
  br i1 %.not20, label %30, label %24

24:                                               ; preds = %21
  %25 = load ptr, ptr %0, align 8, !tbaa !3
  %26 = getelementptr inbounds nuw i8, ptr %25, i64 5
  %27 = load i8, ptr %26, align 1, !tbaa !14
  %28 = zext i8 %27 to i64
  %29 = shl nuw nsw i64 %28, 1
  tail call void @mbedtls_zeroize_and_free(ptr noundef nonnull %23, i64 noundef %29) #14
  br label %30

30:                                               ; preds = %24, %21
  tail call void @mbedtls_platform_zeroize(ptr noundef nonnull %0, i64 noundef 24) #14
  br label %31

31:                                               ; preds = %1, %3, %30
  ret void
}